; Function Attrs: mustprogress nounwind uwtable
define void @_ZN4LIEF2PE11ContentInfoD2Ev(ptr noundef nonnull align 8 dereferenceable(16) %0) unnamed_addr #3 align 2 personality ptr @__gxx_personality_v0 {
  store ptr getelementptr inbounds ({ [7 x ptr] }, ptr @_ZTVN4LIEF2PE11ContentInfoE, i64 0, i32 0, i64 2), ptr %0, align 8
  %2 = getelementptr inbounds i8, ptr %0, i64 8
  %3 = load ptr, ptr %2, align 8
  %.not.i = icmp eq ptr %3, null
  br i1 %.not.i, label %_ZNSt10unique_ptrIN4LIEF2PE11ContentInfo7ContentESt14default_deleteIS3_EED2Ev.exit, label %_ZNKSt14default_deleteIN4LIEF2PE11ContentInfo7ContentEEclEPS3_.exit.i

_ZNKSt14default_deleteIN4LIEF2PE11ContentInfo7ContentEEclEPS3_.exit.i: ; preds = %1
  %4 = load ptr, ptr %3, align 8
  %5 = getelementptr inbounds i8, ptr %4, i64 24
  %6 = load ptr, ptr %5, align 8
  tail call void %6(ptr noundef nonnull align 8 dereferenceable(40) %3) #13
  br label %_ZNSt10unique_ptrIN4LIEF2PE11ContentInfo7ContentESt14default_deleteIS3_EED2Ev.exit

_ZNSt10unique_ptrIN4LIEF2PE11ContentInfo7ContentESt14default_deleteIS3_EED2Ev.exit: ; preds = %1, %_ZNKSt14default_deleteIN4LIEF2PE11ContentInfo7ContentEEclEPS3_.exit.i
  store ptr null, ptr %2, align 8
  tail call void @_ZN4LIEF6ObjectD2Ev(ptr noundef nonnull align 8 dereferenceable(8) %0) #13
  ret void
}